target datalayout = "e-m:e-p270:32:32-p271:32:32-p272:64:64-i64:64-i128:128-f80:128-n8:16:32:64-S128"
target triple = "x86_64-pc-linux-gnu"

@hf_afs_ubik_interface = internal global i32 0, align 4
@hf_afs_ubik_null_addresses = internal global i32 0, align 4

; Function Attrs: null_pointer_is_valid sspstrong uwtable
define internal void @OUT_UBIK_InterfaceAddrs(ptr noundef %0) #0 {
  %2 = alloca ptr, align 8
  %3 = alloca i32, align 4
  %4 = alloca i32, align 4
  %5 = alloca i32, align 4
  store ptr %0, ptr %2, align 8
  call void @llvm.lifetime.start.p0(i64 4, ptr %3) #9
  call void @llvm.lifetime.start.p0(i64 4, ptr %4) #9
  call void @llvm.lifetime.start.p0(i64 4, ptr %5) #9
  store i32 0, ptr %5, align 4
  store i32 0, ptr %3, align 4
  br label %6

6:                                                ; preds = %31, %1
  %7 = load i32, ptr %3, align 4
  %8 = icmp ult i32 %7, 255
  br i1 %8, label %9, label %34

9:                                                ; preds = %6
  %10 = load ptr, ptr %2, align 8
  %11 = call ptr @ptvcursor_tvbuff(ptr noundef %10)
  %12 = load ptr, ptr %2, align 8
  %13 = call i32 @ptvcursor_current_offset(ptr noundef %12)
  %14 = call i32 @tvb_get_ntohl(ptr noundef %11, i32 noundef %13)
  store i32 %14, ptr %4, align 4
  %15 = load i32, ptr %4, align 4
  %16 = icmp ne i32 %15, 0
  br i1 %16, label %17, label %21

17:                                               ; preds = %9
  %18 = load ptr, ptr %2, align 8
  %19 = load i32, ptr @hf_afs_ubik_interface, align 4
  %20 = call ptr @ptvcursor_add(ptr noundef %18, i32 noundef %19, i32 noundef 4, i32 noundef 0)
  store i32 0, ptr %5, align 4
  br label %30

21:                                               ; preds = %9
  %22 = load i32, ptr %5, align 4
  %23 = icmp ne i32 %22, 0
  br i1 %23, label %28, label %24

24:                                               ; preds = %21
  %25 = load ptr, ptr %2, align 8
  %26 = load i32, ptr @hf_afs_ubik_null_addresses, align 4
  %27 = call ptr @ptvcursor_add_no_advance(ptr noundef %25, i32 noundef %26, i32 noundef -1, i32 noundef 0)
  store i32 1, ptr %5, align 4
  br label %28

28:                                               ; preds = %24, %21
  %29 = load ptr, ptr %2, align 8
  call void @ptvcursor_advance(ptr noundef %29, i32 noundef 4)
  br label %30

30:                                               ; preds = %28, %17
  br label %31

31:                                               ; preds = %30
  %32 = load i32, ptr %3, align 4
  %33 = add i32 %32, 1
  store i32 %33, ptr %3, align 4
  br label %6, !llvm.loop !40

34:                                               ; preds = %6
  call void @llvm.lifetime.end.p0(i64 4, ptr %5) #9
  call void @llvm.lifetime.end.p0(i64 4, ptr %4) #9
  call void @llvm.lifetime.end.p0(i64 4, ptr %3) #9
  ret void
}