; Function Attrs: null_pointer_is_valid sspstrong uwtable
define internal fastcc void @OUT_UBIK_InterfaceAddrs(ptr noundef %0) unnamed_addr #0 {
  br label %2

2:                                                ; preds = %1, %14
  %.011 = phi i32 [ 0, %1 ], [ %.2, %14 ]
  %.0810 = phi i32 [ 0, %1 ], [ %15, %14 ]
  %3 = tail call ptr @ptvcursor_tvbuff(ptr noundef %0)
  %4 = tail call i32 @ptvcursor_current_offset(ptr noundef %0)
  %5 = tail call i32 @tvb_get_ntohl(ptr noundef %3, i32 noundef %4)
  %.not = icmp eq i32 %5, 0
  br i1 %.not, label %9, label %6

6:                                                ; preds = %2
  %7 = load i32, ptr @hf_afs_ubik_interface, align 4
  %8 = tail call ptr @ptvcursor_add(ptr noundef %0, i32 noundef %7, i32 noundef 4, i32 noundef 0)
  br label %14

9:                                                ; preds = %2
  %.not9 = icmp eq i32 %.011, 0
  br i1 %.not9, label %10, label %13

10:                                               ; preds = %9
  %11 = load i32, ptr @hf_afs_ubik_null_addresses, align 4
  %12 = tail call ptr @ptvcursor_add_no_advance(ptr noundef %0, i32 noundef %11, i32 noundef -1, i32 noundef 0)
  br label %13

13:                                               ; preds = %10, %9
  tail call void @ptvcursor_advance(ptr noundef %0, i32 noundef 4)
  br label %14

14:                                               ; preds = %6, %13
  %.2 = phi i32 [ 0, %6 ], [ 1, %13 ]
  %15 = add nuw nsw i32 %.0810, 1
  %exitcond.not = icmp eq i32 %15, 255
  br i1 %exitcond.not, label %16, label %2, !llvm.loop !40

16:                                               ; preds = %14
  ret void
}